target datalayout = "e-m:e-p270:32:32-p271:32:32-p272:64:64-i64:64-i128:128-f80:128-n8:16:32:64-S128"
target triple = "x86_64-pc-linux-gnu"

%struct.node_stack_t = type { ptr, i64, i64, i64 }
%struct.ingraph_state = type { %union.anon, i32, i32, ptr, ptr, i8, i32 }
%union.anon = type { ptr }

@Inputs = internal global ptr null, align 8
@fname = internal global ptr null, align 8
@verbose = internal global i32 0, align 4
@stderr = external global ptr, align 8
@.str = private unnamed_addr constant [29 x i8] c"Process graph %s in file %s\0A\00", align 1
@n_graphs = internal global i32 0, align 4
@tot_nodes = internal global i32 0, align 4
@tot_edges = internal global i32 0, align 4
@tot_cc = internal global i32 0, align 4
@tot_cl = internal global i32 0, align 4
@.str.1 = private unnamed_addr constant [6 x i8] c"total\00", align 1
@Stk = internal global %struct.node_stack_t zeroinitializer, align 8
@opterr = external global i32, align 4
@.str.2 = private unnamed_addr constant [12 x i8] c"necCaDUrsv?\00", align 1
@flags = internal global i32 0, align 4
@recurse = internal global i32 0, align 4
@silent = internal global i32 0, align 4
@gtype = internal global i32 0, align 4
@optopt = external global i32, align 4
@.str.3 = private unnamed_addr constant [29 x i8] c"gc: option -%c unrecognized\0A\00", align 1
@.str.4 = private unnamed_addr constant [22 x i8] c"gc: unexpected error\0A\00", align 1
@optind = external global i32, align 4
@stdout = external global ptr, align 8
@outfile = internal global ptr null, align 8
@.str.5 = private unnamed_addr constant [3 x i8] c"%s\00", align 1
@useString = internal global ptr @.str.6, align 8

; Function Attrs: nounwind uwtable
define internal void @usage(i32 noundef %0) #0 {
  %2 = alloca i32, align 4
  store i32 %0, ptr %2, align 4, !tbaa !4
  %3 = load ptr, ptr @useString, align 8, !tbaa !13
  %4 = call i32 (ptr, ...) @printf(ptr noundef @.str.5, ptr noundef %3)
  %5 = load i32, ptr %2, align 4, !tbaa !4
  call void @graphviz_exit(i32 noundef %5) #11
  unreachable
}

; Function Attrs: nounwind uwtable
define internal void @init(i32 noundef %0, ptr noundef %1) #0 {
  %3 = alloca i32, align 4
  %4 = alloca ptr, align 8
  %5 = alloca i32, align 4
  store i32 %0, ptr %3, align 4, !tbaa !4
  store ptr %1, ptr %4, align 8, !tbaa !8
  call void @llvm.lifetime.start.p0(i64 4, ptr %5) #10
  store i32 0, ptr @opterr, align 4, !tbaa !4
  br label %6

6:                                                ; preds = %46, %2
  %7 = load i32, ptr %3, align 4, !tbaa !4
  %8 = load ptr, ptr %4, align 8, !tbaa !8
  %9 = call i32 @getopt(i32 noundef %7, ptr noundef %8, ptr noundef @.str.2) #10
  store i32 %9, ptr %5, align 4, !tbaa !4
  %10 = icmp ne i32 %9, -1
  br i1 %10, label %11, label %47

11:                                               ; preds = %6
  %12 = load i32, ptr %5, align 4, !tbaa !4
  switch i32 %12, label %43 [
    i32 101, label %13
    i32 110, label %16
    i32 99, label %19
    i32 67, label %22
    i32 97, label %25
    i32 114, label %26
    i32 115, label %27
    i32 118, label %28
    i32 68, label %29
    i32 85, label %30
    i32 63, label %31
  ]

13:                                               ; preds = %11
  %14 = load i32, ptr @flags, align 4, !tbaa !4
  %15 = or i32 %14, 2
  store i32 %15, ptr @flags, align 4, !tbaa !4
  br label %46

16:                                               ; preds = %11
  %17 = load i32, ptr @flags, align 4, !tbaa !4
  %18 = or i32 %17, 1
  store i32 %18, ptr @flags, align 4, !tbaa !4
  br label %46

19:                                               ; preds = %11
  %20 = load i32, ptr @flags, align 4, !tbaa !4
  %21 = or i32 %20, 4
  store i32 %21, ptr @flags, align 4, !tbaa !4
  br label %46

22:                                               ; preds = %11
  %23 = load i32, ptr @flags, align 4, !tbaa !4
  %24 = or i32 %23, 8
  store i32 %24, ptr @flags, align 4, !tbaa !4
  store i32 0, ptr @tot_cl, align 4, !tbaa !4
  br label %46

25:                                               ; preds = %11
  store i32 15, ptr @flags, align 4, !tbaa !4
  br label %46

26:                                               ; preds = %11
  store i32 1, ptr @recurse, align 4, !tbaa !4
  br label %46

27:                                               ; preds = %11
  store i32 1, ptr @silent, align 4, !tbaa !4
  br label %46

28:                                               ; preds = %11
  store i32 1, ptr @verbose, align 4, !tbaa !4
  br label %46

29:                                               ; preds = %11
  store i32 1, ptr @gtype, align 4, !tbaa !4
  br label %46

30:                                               ; preds = %11
  store i32 2, ptr @gtype, align 4, !tbaa !4
  br label %46

31:                                               ; preds = %11
  %32 = load i32, ptr @optopt, align 4, !tbaa !4
  %33 = icmp eq i32 %32, 0
  br i1 %33, label %37, label %34

34:                                               ; preds = %31
  %35 = load i32, ptr @optopt, align 4, !tbaa !4
  %36 = icmp eq i32 %35, 63
  br i1 %36, label %37, label %38

37:                                               ; preds = %34, %31
  call void @usage(i32 noundef 0)
  br label %42

38:                                               ; preds = %34
  %39 = load ptr, ptr @stderr, align 8, !tbaa !15
  %40 = load i32, ptr @optopt, align 4, !tbaa !4
  %41 = call i32 (ptr, ptr, ...) @fprintf(ptr noundef %39, ptr noundef @.str.3, i32 noundef %40) #10
  call void @usage(i32 noundef 1)
  br label %42

42:                                               ; preds = %38, %37
  br label %46

43:                                               ; preds = %11
  %44 = load ptr, ptr @stderr, align 8, !tbaa !15
  %45 = call i32 (ptr, ptr, ...) @fprintf(ptr noundef %44, ptr noundef @.str.4) #10
  call void @graphviz_exit(i32 noundef 1) #11
  unreachable

46:                                               ; preds = %42, %30, %29, %28, %27, %26, %25, %22, %19, %16, %13
  br label %6, !llvm.loop !19

47:                                               ; preds = %6
  %48 = load i32, ptr @optind, align 4, !tbaa !4
  %49 = load ptr, ptr %4, align 8, !tbaa !8
  %50 = sext i32 %48 to i64
  %51 = getelementptr inbounds ptr, ptr %49, i64 %50
  store ptr %51, ptr %4, align 8, !tbaa !8
  %52 = load i32, ptr @optind, align 4, !tbaa !4
  %53 = load i32, ptr %3, align 4, !tbaa !4
  %54 = sub nsw i32 %53, %52
  store i32 %54, ptr %3, align 4, !tbaa !4
  %55 = load i32, ptr %3, align 4, !tbaa !4
  %56 = icmp ne i32 %55, 0
  br i1 %56, label %57, label %59

57:                                               ; preds = %47
  %58 = load ptr, ptr %4, align 8, !tbaa !8
  store ptr %58, ptr @Inputs, align 8, !tbaa !8
  br label %59

59:                                               ; preds = %57, %47
  %60 = load i32, ptr @flags, align 4, !tbaa !4
  %61 = icmp eq i32 %60, 0
  br i1 %61, label %62, label %63

62:                                               ; preds = %59
  store i32 3, ptr @flags, align 4, !tbaa !4
  br label %63

63:                                               ; preds = %62, %59
  %64 = load i32, ptr @gtype, align 4, !tbaa !4
  %65 = icmp eq i32 %64, 0
  br i1 %65, label %66, label %67

66:                                               ; preds = %63
  store i32 3, ptr @gtype, align 4, !tbaa !4
  br label %67

67:                                               ; preds = %66, %63
  %68 = load ptr, ptr @stdout, align 8, !tbaa !15
  store ptr %68, ptr @outfile, align 8, !tbaa !15
  call void @llvm.lifetime.end.p0(i64 4, ptr %5) #10
  ret void
}

; Function Attrs: nounwind uwtable
define dso_local i32 @main(i32 noundef %0, ptr noundef %1) #0 {
  %3 = alloca i32, align 4
  %4 = alloca i32, align 4
  %5 = alloca ptr, align 8
  %6 = alloca ptr, align 8
  %7 = alloca ptr, align 8
  %8 = alloca %struct.ingraph_state, align 8
  %9 = alloca i32, align 4
  store i32 0, ptr %3, align 4
  store i32 %0, ptr %4, align 4, !tbaa !4
  store ptr %1, ptr %5, align 8, !tbaa !8
  call void @llvm.lifetime.start.p0(i64 8, ptr %6) #10
  call void @llvm.lifetime.start.p0(i64 8, ptr %7) #10
  store ptr null, ptr %7, align 8, !tbaa !11
  call void @llvm.lifetime.start.p0(i64 40, ptr %8) #10
  call void @llvm.lifetime.start.p0(i64 4, ptr %9) #10
  store i32 0, ptr %9, align 4, !tbaa !4
  %10 = load i32, ptr %4, align 4, !tbaa !4
  %11 = load ptr, ptr %5, align 8, !tbaa !8
  call void @init(i32 noundef %10, ptr noundef %11)
  %12 = load ptr, ptr @Inputs, align 8, !tbaa !8
  %13 = call ptr @newIngraph(ptr noundef %8, ptr noundef %12)
  br label %14

14:                                               ; preds = %34, %2
  %15 = call ptr @nextGraph(ptr noundef %8)
  store ptr %15, ptr %6, align 8, !tbaa !11
  %16 = icmp ne ptr %15, null
  br i1 %16, label %17, label %39

17:                                               ; preds = %14
  %18 = load ptr, ptr %7, align 8, !tbaa !11
  %19 = icmp ne ptr %18, null
  br i1 %19, label %20, label %23

20:                                               ; preds = %17
  %21 = load ptr, ptr %7, align 8, !tbaa !11
  %22 = call i32 @agclose(ptr noundef %21)
  br label %23

23:                                               ; preds = %20, %17
  %24 = load ptr, ptr %6, align 8, !tbaa !11
  store ptr %24, ptr %7, align 8, !tbaa !11
  %25 = call ptr @fileName(ptr noundef %8)
  store ptr %25, ptr @fname, align 8, !tbaa !13
  %26 = load i32, ptr @verbose, align 4, !tbaa !4
  %27 = icmp ne i32 %26, 0
  br i1 %27, label %28, label %34

28:                                               ; preds = %23
  %29 = load ptr, ptr @stderr, align 8, !tbaa !15
  %30 = load ptr, ptr %6, align 8, !tbaa !11
  %31 = call ptr @agnameof(ptr noundef %30)
  %32 = load ptr, ptr @fname, align 8, !tbaa !13
  %33 = call i32 (ptr, ptr, ...) @fprintf(ptr noundef %29, ptr noundef @.str, ptr noundef %31, ptr noundef %32) #10
  br label %34

34:                                               ; preds = %28, %23
  %35 = load ptr, ptr %6, align 8, !tbaa !11
  %36 = call i32 @eval(ptr noundef %35, i32 noundef 1)
  %37 = load i32, ptr %9, align 4, !tbaa !4
  %38 = or i32 %37, %36
  store i32 %38, ptr %9, align 4, !tbaa !4
  br label %14, !llvm.loop !17

39:                                               ; preds = %14
  %40 = load i32, ptr @n_graphs, align 4, !tbaa !4
  %41 = icmp sgt i32 %40, 1
  br i1 %41, label %42, label %47

42:                                               ; preds = %39
  %43 = load i32, ptr @tot_nodes, align 4, !tbaa !4
  %44 = load i32, ptr @tot_edges, align 4, !tbaa !4
  %45 = load i32, ptr @tot_cc, align 4, !tbaa !4
  %46 = load i32, ptr @tot_cl, align 4, !tbaa !4
  call void @wcp(i32 noundef %43, i32 noundef %44, i32 noundef %45, i32 noundef %46, ptr noundef @.str.1, ptr noundef null)
  br label %47

47:                                               ; preds = %42, %39
  call void @node_stack_free(ptr noundef @Stk)
  %48 = load i32, ptr %9, align 4, !tbaa !4
  call void @graphviz_exit(i32 noundef %48) #11
  unreachable
}