; Function Attrs: noreturn nounwind uwtable
define dso_local noundef i32 @main(i32 noundef %0, ptr noundef %1) local_unnamed_addr #0 {
  %3 = alloca %struct.ingraph_state, align 8
  call void @llvm.lifetime.start.p0(i64 40, ptr nonnull %3) #15
  store i32 0, ptr @opterr, align 4, !tbaa !4
  br label %4

4:                                                ; preds = %.backedge, %2
  %5 = tail call i32 @getopt(i32 noundef %0, ptr noundef %1, ptr noundef nonnull @.str.2) #15
  switch i32 %5, label %30 [
    i32 -1, label %33
    i32 101, label %6
    i32 110, label %9
    i32 99, label %12
    i32 67, label %15
    i32 97, label %18
    i32 114, label %19
    i32 115, label %20
    i32 118, label %21
    i32 68, label %22
    i32 85, label %23
    i32 63, label %24
  ]

6:                                                ; preds = %4
  %7 = load i32, ptr @flags, align 4, !tbaa !4
  %8 = or i32 %7, 2
  store i32 %8, ptr @flags, align 4, !tbaa !4
  br label %.backedge

9:                                                ; preds = %4
  %10 = load i32, ptr @flags, align 4, !tbaa !4
  %11 = or i32 %10, 1
  store i32 %11, ptr @flags, align 4, !tbaa !4
  br label %.backedge

12:                                               ; preds = %4
  %13 = load i32, ptr @flags, align 4, !tbaa !4
  %14 = or i32 %13, 4
  store i32 %14, ptr @flags, align 4, !tbaa !4
  br label %.backedge

15:                                               ; preds = %4
  %16 = load i32, ptr @flags, align 4, !tbaa !4
  %17 = or i32 %16, 8
  store i32 %17, ptr @flags, align 4, !tbaa !4
  store i32 0, ptr @tot_cl, align 4, !tbaa !4
  br label %.backedge

18:                                               ; preds = %4
  store i32 15, ptr @flags, align 4, !tbaa !4
  br label %.backedge

19:                                               ; preds = %4
  store i1 true, ptr @recurse, align 4
  br label %.backedge

20:                                               ; preds = %4
  store i1 true, ptr @silent, align 4
  br label %.backedge

21:                                               ; preds = %4
  store i1 true, ptr @verbose, align 4
  br label %.backedge

22:                                               ; preds = %4
  store i32 1, ptr @gtype, align 4, !tbaa !4
  br label %.backedge

23:                                               ; preds = %4
  store i32 2, ptr @gtype, align 4, !tbaa !4
  br label %.backedge

.backedge:                                        ; preds = %23, %22, %21, %20, %19, %18, %15, %12, %9, %6
  br label %4, !llvm.loop !8

24:                                               ; preds = %4
  %25 = load i32, ptr @optopt, align 4, !tbaa !4
  switch i32 %25, label %27 [
    i32 63, label %26
    i32 0, label %26
  ]

26:                                               ; preds = %24, %24
  %puts.i.i = tail call i32 @puts(ptr nonnull dereferenceable(1) @str)
  tail call fastcc void @graphviz_exit(i32 noundef 0) #16
  unreachable

27:                                               ; preds = %24
  %28 = load ptr, ptr @stderr, align 8, !tbaa !10
  %29 = tail call i32 (ptr, ptr, ...) @fprintf(ptr noundef %28, ptr noundef nonnull @.str.3, i32 noundef %25) #17
  %puts.i9.i = tail call i32 @puts(ptr nonnull dereferenceable(1) @str)
  tail call fastcc void @graphviz_exit(i32 noundef 1) #16
  unreachable

30:                                               ; preds = %4
  %31 = load ptr, ptr @stderr, align 8, !tbaa !10
  %32 = tail call i64 @fwrite(ptr nonnull @.str.4, i64 21, i64 1, ptr %31) #18
  tail call fastcc void @graphviz_exit(i32 noundef 1) #16
  unreachable

33:                                               ; preds = %4
  %34 = load i32, ptr @optind, align 4, !tbaa !4
  %.not8.i = icmp eq i32 %0, %34
  br i1 %.not8.i, label %38, label %35

35:                                               ; preds = %33
  %36 = sext i32 %34 to i64
  %37 = getelementptr inbounds ptr, ptr %1, i64 %36
  store ptr %37, ptr @Inputs, align 8, !tbaa !13
  br label %38

38:                                               ; preds = %35, %33
  %39 = load i32, ptr @flags, align 4, !tbaa !4
  %40 = icmp eq i32 %39, 0
  br i1 %40, label %41, label %42

41:                                               ; preds = %38
  store i32 3, ptr @flags, align 4, !tbaa !4
  br label %42

42:                                               ; preds = %41, %38
  %43 = load i32, ptr @gtype, align 4, !tbaa !4
  %44 = icmp eq i32 %43, 0
  br i1 %44, label %45, label %init.exit

45:                                               ; preds = %42
  store i32 3, ptr @gtype, align 4, !tbaa !4
  br label %init.exit

init.exit:                                        ; preds = %42, %45
  %46 = load ptr, ptr @stdout, align 8, !tbaa !10
  store ptr %46, ptr @outfile, align 8, !tbaa !10
  %47 = load ptr, ptr @Inputs, align 8, !tbaa !13
  %48 = call ptr @newIngraph(ptr noundef nonnull %3, ptr noundef %47) #15
  %49 = call ptr @nextGraph(ptr noundef nonnull %3) #15
  %.not11 = icmp eq ptr %49, null
  br i1 %.not11, label %._crit_edge, label %.lr.ph

.lr.ph:                                           ; preds = %init.exit, %60
  %50 = phi ptr [ %63, %60 ], [ %49, %init.exit ]
  %.013 = phi i32 [ %62, %60 ], [ 0, %init.exit ]
  %.0812 = phi ptr [ %50, %60 ], [ null, %init.exit ]
  %.not10 = icmp eq ptr %.0812, null
  br i1 %.not10, label %53, label %51

51:                                               ; preds = %.lr.ph
  %52 = call i32 @agclose(ptr noundef nonnull %.0812) #15
  br label %53

53:                                               ; preds = %51, %.lr.ph
  %54 = call ptr @fileName(ptr noundef nonnull %3) #15
  store ptr %54, ptr @fname, align 8, !tbaa !15
  %.b = load i1, ptr @verbose, align 4
  br i1 %.b, label %55, label %60

55:                                               ; preds = %53
  %56 = load ptr, ptr @stderr, align 8, !tbaa !10
  %57 = call ptr @agnameof(ptr noundef nonnull %50) #15
  %58 = load ptr, ptr @fname, align 8, !tbaa !15
  %59 = call i32 (ptr, ptr, ...) @fprintf(ptr noundef %56, ptr noundef nonnull @.str, ptr noundef %57, ptr noundef %58) #17
  br label %60

60:                                               ; preds = %55, %53
  %61 = call fastcc i32 @eval(ptr noundef %50, i32 noundef 1)
  %62 = or i32 %61, %.013
  %63 = call ptr @nextGraph(ptr noundef nonnull %3) #15
  %.not = icmp eq ptr %63, null
  br i1 %.not, label %._crit_edge, label %.lr.ph, !llvm.loop !17

._crit_edge:                                      ; preds = %60, %init.exit
  %.0.lcssa = phi i32 [ 0, %init.exit ], [ %62, %60 ]
  %64 = load i32, ptr @n_graphs, align 4, !tbaa !4
  %65 = icmp sgt i32 %64, 1
  br i1 %65, label %66, label %71

66:                                               ; preds = %._crit_edge
  %67 = load i32, ptr @tot_nodes, align 4, !tbaa !4
  %68 = load i32, ptr @tot_edges, align 4, !tbaa !4
  %69 = load i32, ptr @tot_cc, align 4, !tbaa !4
  %70 = load i32, ptr @tot_cl, align 4, !tbaa !4
  call fastcc void @wcp(i32 noundef %67, i32 noundef %68, i32 noundef %69, i32 noundef %70, ptr noundef nonnull @.str.1, ptr noundef null)
  br label %71

71:                                               ; preds = %66, %._crit_edge
  call fastcc void @node_stack_free()
  call fastcc void @graphviz_exit(i32 noundef %.0.lcssa) #16
  unreachable
}